target datalayout = "e-m:e-p270:32:32-p271:32:32-p272:64:64-i64:64-i128:128-f80:128-n8:16:32:64-S128"
target triple = "x86_64-unknown-linux-gnu"

%class.btVector3 = type { [4 x float] }
%struct.btBroadphaseProxy = type <{ ptr, i32, i32, i32, %class.btVector3, %class.btVector3, [4 x i8] }>

; Function Attrs: mustprogress nounwind uwtable
define linkonce_odr dso_local noundef ptr @_ZN9btVector3cvPfEv(ptr noundef nonnull align 4 dereferenceable(16) %this) #1 comdat align 2 {
entry:
  %this.addr = alloca ptr, align 8
  store ptr %this, ptr %this.addr, align 8
  %this1 = load ptr, ptr %this.addr, align 8
  %m_floats = getelementptr inbounds %class.btVector3, ptr %this1, i32 0, i32 0
  %arrayidx = getelementptr inbounds [4 x float], ptr %m_floats, i64 0, i64 0
  ret ptr %arrayidx
}

; Function Attrs: mustprogress uwtable
define dso_local noundef zeroext i1 @_ZN18btSimpleBroadphase11aabbOverlapEP23btSimpleBroadphaseProxyS1_(ptr noundef %proxy0, ptr noundef %proxy1) #2 align 2 {
entry:
  %proxy0.addr = alloca ptr, align 8
  %proxy1.addr = alloca ptr, align 8
  store ptr %proxy0, ptr %proxy0.addr, align 8
  store ptr %proxy1, ptr %proxy1.addr, align 8
  %0 = load ptr, ptr %proxy0.addr, align 8
  %m_aabbMin = getelementptr inbounds %struct.btBroadphaseProxy, ptr %0, i32 0, i32 4
  %call = call noundef ptr @_ZN9btVector3cvPfEv(ptr noundef nonnull align 4 dereferenceable(16) %m_aabbMin)
  %arrayidx = getelementptr inbounds float, ptr %call, i64 0
  %1 = load float, ptr %arrayidx, align 4
  %2 = load ptr, ptr %proxy1.addr, align 8
  %m_aabbMax = getelementptr inbounds %struct.btBroadphaseProxy, ptr %2, i32 0, i32 5
  %call1 = call noundef ptr @_ZN9btVector3cvPfEv(ptr noundef nonnull align 4 dereferenceable(16) %m_aabbMax)
  %arrayidx2 = getelementptr inbounds float, ptr %call1, i64 0
  %3 = load float, ptr %arrayidx2, align 4
  %cmp = fcmp ole float %1, %3
  br i1 %cmp, label %land.lhs.true, label %land.end

land.lhs.true:                                    ; preds = %entry
  %4 = load ptr, ptr %proxy1.addr, align 8
  %m_aabbMin3 = getelementptr inbounds %struct.btBroadphaseProxy, ptr %4, i32 0, i32 4
  %call4 = call noundef ptr @_ZN9btVector3cvPfEv(ptr noundef nonnull align 4 dereferenceable(16) %m_aabbMin3)
  %arrayidx5 = getelementptr inbounds float, ptr %call4, i64 0
  %5 = load float, ptr %arrayidx5, align 4
  %6 = load ptr, ptr %proxy0.addr, align 8
  %m_aabbMax6 = getelementptr inbounds %struct.btBroadphaseProxy, ptr %6, i32 0, i32 5
  %call7 = call noundef ptr @_ZN9btVector3cvPfEv(ptr noundef nonnull align 4 dereferenceable(16) %m_aabbMax6)
  %arrayidx8 = getelementptr inbounds float, ptr %call7, i64 0
  %7 = load float, ptr %arrayidx8, align 4
  %cmp9 = fcmp ole float %5, %7
  br i1 %cmp9, label %land.lhs.true10, label %land.end

land.lhs.true10:                                  ; preds = %land.lhs.true
  %8 = load ptr, ptr %proxy0.addr, align 8
  %m_aabbMin11 = getelementptr inbounds %struct.btBroadphaseProxy, ptr %8, i32 0, i32 4
  %call12 = call noundef ptr @_ZN9btVector3cvPfEv(ptr noundef nonnull align 4 dereferenceable(16) %m_aabbMin11)
  %arrayidx13 = getelementptr inbounds float, ptr %call12, i64 1
  %9 = load float, ptr %arrayidx13, align 4
  %10 = load ptr, ptr %proxy1.addr, align 8
  %m_aabbMax14 = getelementptr inbounds %struct.btBroadphaseProxy, ptr %10, i32 0, i32 5
  %call15 = call noundef ptr @_ZN9btVector3cvPfEv(ptr noundef nonnull align 4 dereferenceable(16) %m_aabbMax14)
  %arrayidx16 = getelementptr inbounds float, ptr %call15, i64 1
  %11 = load float, ptr %arrayidx16, align 4
  %cmp17 = fcmp ole float %9, %11
  br i1 %cmp17, label %land.lhs.true18, label %land.end

land.lhs.true18:                                  ; preds = %land.lhs.true10
  %12 = load ptr, ptr %proxy1.addr, align 8
  %m_aabbMin19 = getelementptr inbounds %struct.btBroadphaseProxy, ptr %12, i32 0, i32 4
  %call20 = call noundef ptr @_ZN9btVector3cvPfEv(ptr noundef nonnull align 4 dereferenceable(16) %m_aabbMin19)
  %arrayidx21 = getelementptr inbounds float, ptr %call20, i64 1
  %13 = load float, ptr %arrayidx21, align 4
  %14 = load ptr, ptr %proxy0.addr, align 8
  %m_aabbMax22 = getelementptr inbounds %struct.btBroadphaseProxy, ptr %14, i32 0, i32 5
  %call23 = call noundef ptr @_ZN9btVector3cvPfEv(ptr noundef nonnull align 4 dereferenceable(16) %m_aabbMax22)
  %arrayidx24 = getelementptr inbounds float, ptr %call23, i64 1
  %15 = load float, ptr %arrayidx24, align 4
  %cmp25 = fcmp ole float %13, %15
  br i1 %cmp25, label %land.lhs.true26, label %land.end

land.lhs.true26:                                  ; preds = %land.lhs.true18
  %16 = load ptr, ptr %proxy0.addr, align 8
  %m_aabbMin27 = getelementptr inbounds %struct.btBroadphaseProxy, ptr %16, i32 0, i32 4
  %call28 = call noundef ptr @_ZN9btVector3cvPfEv(ptr noundef nonnull align 4 dereferenceable(16) %m_aabbMin27)
  %arrayidx29 = getelementptr inbounds float, ptr %call28, i64 2
  %17 = load float, ptr %arrayidx29, align 4
  %18 = load ptr, ptr %proxy1.addr, align 8
  %m_aabbMax30 = getelementptr inbounds %struct.btBroadphaseProxy, ptr %18, i32 0, i32 5
  %call31 = call noundef ptr @_ZN9btVector3cvPfEv(ptr noundef nonnull align 4 dereferenceable(16) %m_aabbMax30)
  %arrayidx32 = getelementptr inbounds float, ptr %call31, i64 2
  %19 = load float, ptr %arrayidx32, align 4
  %cmp33 = fcmp ole float %17, %19
  br i1 %cmp33, label %land.rhs, label %land.end

land.rhs:                                         ; preds = %land.lhs.true26
  %20 = load ptr, ptr %proxy1.addr, align 8
  %m_aabbMin34 = getelementptr inbounds %struct.btBroadphaseProxy, ptr %20, i32 0, i32 4
  %call35 = call noundef ptr @_ZN9btVector3cvPfEv(ptr noundef nonnull align 4 dereferenceable(16) %m_aabbMin34)
  %arrayidx36 = getelementptr inbounds float, ptr %call35, i64 2
  %21 = load float, ptr %arrayidx36, align 4
  %22 = load ptr, ptr %proxy0.addr, align 8
  %m_aabbMax37 = getelementptr inbounds %struct.btBroadphaseProxy, ptr %22, i32 0, i32 5
  %call38 = call noundef ptr @_ZN9btVector3cvPfEv(ptr noundef nonnull align 4 dereferenceable(16) %m_aabbMax37)
  %arrayidx39 = getelementptr inbounds float, ptr %call38, i64 2
  %23 = load float, ptr %arrayidx39, align 4
  %cmp40 = fcmp ole float %21, %23
  br label %land.end

land.end:                                         ; preds = %land.rhs, %land.lhs.true26, %land.lhs.true18, %land.lhs.true10, %land.lhs.true, %entry
  %24 = phi i1 [ false, %land.lhs.true26 ], [ false, %land.lhs.true18 ], [ false, %land.lhs.true10 ], [ false, %land.lhs.true ], [ false, %entry ], [ %cmp40, %land.rhs ]
  ret i1 %24
}