; Function Attrs: mustprogress nofree norecurse nosync nounwind willreturn memory(argmem: read) uwtable
define dso_local noundef zeroext i1 @_ZN18btSimpleBroadphase11aabbOverlapEP23btSimpleBroadphaseProxyS1_(ptr nocapture noundef readonly %proxy0, ptr nocapture noundef readonly %proxy1) local_unnamed_addr #9 align 2 {
entry:
  %m_aabbMin = getelementptr inbounds i8, ptr %proxy0, i64 20
  %0 = load float, ptr %m_aabbMin, align 4
  %m_aabbMax = getelementptr inbounds i8, ptr %proxy1, i64 36
  %1 = load float, ptr %m_aabbMax, align 4
  %cmp = fcmp ugt float %0, %1
  br i1 %cmp, label %land.end, label %land.lhs.true

land.lhs.true:                                    ; preds = %entry
  %m_aabbMin3 = getelementptr inbounds i8, ptr %proxy1, i64 20
  %2 = load float, ptr %m_aabbMin3, align 4
  %m_aabbMax6 = getelementptr inbounds i8, ptr %proxy0, i64 36
  %3 = load float, ptr %m_aabbMax6, align 4
  %cmp9 = fcmp ugt float %2, %3
  br i1 %cmp9, label %land.end, label %land.lhs.true10

land.lhs.true10:                                  ; preds = %land.lhs.true
  %arrayidx13 = getelementptr inbounds i8, ptr %proxy0, i64 24
  %4 = load float, ptr %arrayidx13, align 4
  %arrayidx16 = getelementptr inbounds i8, ptr %proxy1, i64 40
  %5 = load float, ptr %arrayidx16, align 4
  %cmp17 = fcmp ugt float %4, %5
  br i1 %cmp17, label %land.end, label %land.lhs.true18

land.lhs.true18:                                  ; preds = %land.lhs.true10
  %arrayidx21 = getelementptr inbounds i8, ptr %proxy1, i64 24
  %6 = load float, ptr %arrayidx21, align 4
  %arrayidx24 = getelementptr inbounds i8, ptr %proxy0, i64 40
  %7 = load float, ptr %arrayidx24, align 4
  %cmp25 = fcmp ugt float %6, %7
  br i1 %cmp25, label %land.end, label %land.lhs.true26

land.lhs.true26:                                  ; preds = %land.lhs.true18
  %arrayidx29 = getelementptr inbounds i8, ptr %proxy0, i64 28
  %8 = load float, ptr %arrayidx29, align 4
  %arrayidx32 = getelementptr inbounds i8, ptr %proxy1, i64 44
  %9 = load float, ptr %arrayidx32, align 4
  %cmp33 = fcmp ugt float %8, %9
  br i1 %cmp33, label %land.end, label %land.rhs

land.rhs:                                         ; preds = %land.lhs.true26
  %arrayidx36 = getelementptr inbounds i8, ptr %proxy1, i64 28
  %10 = load float, ptr %arrayidx36, align 4
  %arrayidx39 = getelementptr inbounds i8, ptr %proxy0, i64 44
  %11 = load float, ptr %arrayidx39, align 4
  %cmp40 = fcmp ole float %10, %11
  br label %land.end

land.end:                                         ; preds = %land.rhs, %land.lhs.true26, %land.lhs.true18, %land.lhs.true10, %land.lhs.true, %entry
  %12 = phi i1 [ false, %land.lhs.true26 ], [ false, %land.lhs.true18 ], [ false, %land.lhs.true10 ], [ false, %land.lhs.true ], [ false, %entry ], [ %cmp40, %land.rhs ]
  ret i1 %12
}